target datalayout = "e-m:e-p270:32:32-p271:32:32-p272:64:64-i64:64-i128:128-f80:128-n8:16:32:64-S128"
target triple = "x86_64-pc-linux-gnu"

@hf_r3_taskflags_taskid = internal global i32 0, align 4
@hf_r3_taskflags_flags = internal global i32 0, align 4
@ett_r3taskflags = internal global i32 0, align 4
@ett_r3taskflagsentry = internal global i32 0, align 4
@.str.1860 = private unnamed_addr constant [29 x i8] c"%s:%u: failed assertion \22%s\22\00", align 1
@.str.1861 = private unnamed_addr constant [33 x i8] c"epan/dissectors/packet-assa_r3.c\00", align 1
@.str.1862 = private unnamed_addr constant [18 x i8] c"start_offset == 0\00", align 1
@.str.2106 = private unnamed_addr constant [22 x i8] c"Task Flags (%u tasks)\00", align 1
@.str.2107 = private unnamed_addr constant [25 x i8] c"Task Flags (%2d: 0x%06x)\00", align 1

; Function Attrs: null_pointer_is_valid sspstrong uwtable
define internal void @dissect_r3_upstreammfgfield_taskflags(ptr noundef %0, i32 noundef %1, i32 noundef %2, ptr noundef %3, ptr noundef %4) #0 {
  %6 = alloca ptr, align 8
  %7 = alloca i32, align 4
  %8 = alloca i32, align 4
  %9 = alloca ptr, align 8
  %10 = alloca ptr, align 8
  %11 = alloca i32, align 4
  %12 = alloca i32, align 4
  %13 = alloca ptr, align 8
  %14 = alloca ptr, align 8
  store ptr %0, ptr %6, align 8
  store i32 %1, ptr %7, align 4
  store i32 %2, ptr %8, align 4
  store ptr %3, ptr %9, align 8
  store ptr %4, ptr %10, align 8
  call void @llvm.lifetime.start.p0(i64 4, ptr %11) #5
  call void @llvm.lifetime.start.p0(i64 4, ptr %12) #5
  call void @llvm.lifetime.start.p0(i64 8, ptr %13) #5
  %15 = load i32, ptr %7, align 4
  %16 = icmp eq i32 %15, 0
  br i1 %16, label %17, label %18

17:                                               ; preds = %5
  br label %20

18:                                               ; preds = %5
  call void (ptr, ...) @proto_report_dissector_bug(ptr noundef @.str.1860, ptr noundef @.str.1861, i32 noundef 4535, ptr noundef @.str.1862) #6
  unreachable

19:                                               ; No predecessors!
  br label %20

20:                                               ; preds = %19, %17
  %21 = load ptr, ptr %6, align 8
  %22 = call i32 @tvb_reported_length_remaining(ptr noundef %21, i32 noundef 0)
  %23 = icmp sgt i32 0, %22
  br i1 %23, label %24, label %25

24:                                               ; preds = %20
  br label %28

25:                                               ; preds = %20
  %26 = load ptr, ptr %6, align 8
  %27 = call i32 @tvb_reported_length_remaining(ptr noundef %26, i32 noundef 0)
  br label %28

28:                                               ; preds = %25, %24
  %29 = phi i32 [ 0, %24 ], [ %27, %25 ]
  store i32 %29, ptr %11, align 4
  %30 = load ptr, ptr %10, align 8
  %31 = load ptr, ptr %6, align 8
  %32 = load i32, ptr @ett_r3taskflags, align 4
  %33 = load i32, ptr %11, align 4
  %34 = sdiv i32 %33, 5
  %35 = call ptr (ptr, ptr, i32, i32, i32, ptr, ptr, ...) @proto_tree_add_subtree_format(ptr noundef %30, ptr noundef %31, i32 noundef 0, i32 noundef -1, i32 noundef %32, ptr noundef null, ptr noundef @.str.2106, i32 noundef %34)
  store ptr %35, ptr %13, align 8
  store i32 0, ptr %12, align 4
  br label %36

36:                                               ; preds = %67, %28
  %37 = load i32, ptr %12, align 4
  %38 = load i32, ptr %11, align 4
  %39 = icmp slt i32 %37, %38
  br i1 %39, label %40, label %70

40:                                               ; preds = %36
  call void @llvm.lifetime.start.p0(i64 8, ptr %14) #5
  %41 = load ptr, ptr %13, align 8
  %42 = load ptr, ptr %6, align 8
  %43 = load i32, ptr %12, align 4
  %44 = load i32, ptr @ett_r3taskflagsentry, align 4
  %45 = load ptr, ptr %6, align 8
  %46 = load i32, ptr %12, align 4
  %47 = add i32 %46, 0
  %48 = call zeroext i8 @tvb_get_uint8(ptr noundef %45, i32 noundef %47)
  %49 = zext i8 %48 to i32
  %50 = load ptr, ptr %6, align 8
  %51 = load i32, ptr %12, align 4
  %52 = add i32 %51, 1
  %53 = call i32 @tvb_get_letohl(ptr noundef %50, i32 noundef %52)
  %54 = call ptr (ptr, ptr, i32, i32, i32, ptr, ptr, ...) @proto_tree_add_subtree_format(ptr noundef %41, ptr noundef %42, i32 noundef %43, i32 noundef 5, i32 noundef %44, ptr noundef null, ptr noundef @.str.2107, i32 noundef %49, i32 noundef %53)
  store ptr %54, ptr %14, align 8
  %55 = load ptr, ptr %14, align 8
  %56 = load i32, ptr @hf_r3_taskflags_taskid, align 4
  %57 = load ptr, ptr %6, align 8
  %58 = load i32, ptr %12, align 4
  %59 = add i32 %58, 0
  %60 = call ptr @proto_tree_add_item(ptr noundef %55, i32 noundef %56, ptr noundef %57, i32 noundef %59, i32 noundef 1, i32 noundef -2147483648)
  %61 = load ptr, ptr %14, align 8
  %62 = load i32, ptr @hf_r3_taskflags_flags, align 4
  %63 = load ptr, ptr %6, align 8
  %64 = load i32, ptr %12, align 4
  %65 = add i32 %64, 1
  %66 = call ptr @proto_tree_add_item(ptr noundef %61, i32 noundef %62, ptr noundef %63, i32 noundef %65, i32 noundef 4, i32 noundef -2147483648)
  call void @llvm.lifetime.end.p0(i64 8, ptr %14) #5
  br label %67

67:                                               ; preds = %40
  %68 = load i32, ptr %12, align 4
  %69 = add i32 %68, 5
  store i32 %69, ptr %12, align 4
  br label %36, !llvm.loop !22

70:                                               ; preds = %36
  call void @llvm.lifetime.end.p0(i64 8, ptr %13) #5
  call void @llvm.lifetime.end.p0(i64 4, ptr %12) #5
  call void @llvm.lifetime.end.p0(i64 4, ptr %11) #5
  ret void
}