; Function Attrs: null_pointer_is_valid sspstrong uwtable
define internal void @dissect_r3_upstreammfgfield_taskflags(ptr noundef %0, i32 noundef %1, i32 %2, ptr readnone captures(none) %3, ptr noundef %4) #0 {
  %6 = icmp eq i32 %1, 0
  br i1 %6, label %8, label %7

7:                                                ; preds = %5
  tail call void (ptr, ...) @proto_report_dissector_bug(ptr noundef nonnull @.str.1860, ptr noundef nonnull @.str.1861, i32 noundef 4535, ptr noundef nonnull @.str.1862) #6
  unreachable

8:                                                ; preds = %5
  %9 = tail call i32 @tvb_reported_length_remaining(ptr noundef %0, i32 noundef 0)
  %10 = icmp slt i32 %9, 0
  br i1 %10, label %13, label %11

11:                                               ; preds = %8
  %12 = tail call i32 @tvb_reported_length_remaining(ptr noundef %0, i32 noundef 0)
  br label %13

13:                                               ; preds = %8, %11
  %14 = phi i32 [ %12, %11 ], [ 0, %8 ]
  %15 = load i32, ptr @ett_r3taskflags, align 4
  %16 = sdiv i32 %14, 5
  %17 = tail call ptr (ptr, ptr, i32, i32, i32, ptr, ptr, ...) @proto_tree_add_subtree_format(ptr noundef %4, ptr noundef %0, i32 noundef 0, i32 noundef -1, i32 noundef %15, ptr noundef null, ptr noundef nonnull @.str.2106, i32 noundef %16)
  %18 = icmp sgt i32 %14, 0
  br i1 %18, label %.lr.ph, label %._crit_edge

.lr.ph:                                           ; preds = %13, %.lr.ph
  %.021 = phi i32 [ %29, %.lr.ph ], [ 0, %13 ]
  %19 = load i32, ptr @ett_r3taskflagsentry, align 4
  %20 = tail call zeroext i8 @tvb_get_uint8(ptr noundef %0, i32 noundef %.021)
  %21 = zext i8 %20 to i32
  %22 = add nsw i32 %.021, 1
  %23 = tail call i32 @tvb_get_letohl(ptr noundef %0, i32 noundef %22)
  %24 = tail call ptr (ptr, ptr, i32, i32, i32, ptr, ptr, ...) @proto_tree_add_subtree_format(ptr noundef %17, ptr noundef %0, i32 noundef %.021, i32 noundef 5, i32 noundef %19, ptr noundef null, ptr noundef nonnull @.str.2107, i32 noundef %21, i32 noundef %23)
  %25 = load i32, ptr @hf_r3_taskflags_taskid, align 4
  %26 = tail call ptr @proto_tree_add_item(ptr noundef %24, i32 noundef %25, ptr noundef %0, i32 noundef %.021, i32 noundef 1, i32 noundef -2147483648)
  %27 = load i32, ptr @hf_r3_taskflags_flags, align 4
  %28 = tail call ptr @proto_tree_add_item(ptr noundef %24, i32 noundef %27, ptr noundef %0, i32 noundef %22, i32 noundef 4, i32 noundef -2147483648)
  %29 = add i32 %.021, 5
  %30 = icmp slt i32 %29, %14
  br i1 %30, label %.lr.ph, label %._crit_edge, !llvm.loop !21

._crit_edge:                                      ; preds = %.lr.ph, %13
  ret void
}